(dp0
Vengine
p1
S'pdflatex'
p2
sVpackages
p3
c__builtin__
set
p4
((lp5
Vlistingsutf8
p6
aVpmboxdraw
p7
aVcolor
p8
aVbabel
p9
aVcaption
p10
aVllncsdoc
p11
aVinputenc
p12
aVgraphicx
p13
atp14
Rp15
sVfiles_with_guttermarks
p16
g4
((lp17
S'article.tex'
p18
atp19
Rp20
sVsynctex
p21
I01
s.